target datalayout = "e-m:e-p270:32:32-p271:32:32-p272:64:64-i64:64-i128:128-f80:128-n8:16:32:64-S128"
target triple = "x86_64-pc-linux-gnu"

%struct.curl_mimepart = type { ptr, ptr, i32, i32, ptr, ptr, ptr, ptr, ptr, ptr, ptr, ptr, ptr, ptr, ptr, i64, %struct.mime_state, ptr, %struct.mime_encoder_state, i64 }
%struct.mime_state = type { i32, ptr, i64 }
%struct.mime_encoder_state = type { i64, i64, i64, [256 x i8] }
%struct.bufq = type { ptr, ptr, ptr, ptr, i64, i64, i64, i32 }
%struct.Curl_creader = type { ptr, ptr, ptr, i32 }
%struct.cr_mime_ctx = type { %struct.Curl_creader, ptr, i64, i64, i32, %struct.bufq, i8 }

@.str.64 = private unnamed_addr constant [29 x i8] c"Cannot rewind mime/post data\00", align 1

; Function Attrs: nounwind uwtable
define internal void @mimesetstate(ptr noundef %0, i32 noundef %1, ptr noundef %2) #0 {
  %4 = alloca ptr, align 8
  %5 = alloca i32, align 4
  %6 = alloca ptr, align 8
  store ptr %0, ptr %4, align 8, !tbaa !57
  store i32 %1, ptr %5, align 4, !tbaa !45
  store ptr %2, ptr %6, align 8, !tbaa !22
  %7 = load i32, ptr %5, align 4, !tbaa !45
  %8 = load ptr, ptr %4, align 8, !tbaa !57
  %9 = getelementptr inbounds nuw %struct.mime_state, ptr %8, i32 0, i32 0
  store i32 %7, ptr %9, align 8, !tbaa !59
  %10 = load ptr, ptr %6, align 8, !tbaa !22
  %11 = load ptr, ptr %4, align 8, !tbaa !57
  %12 = getelementptr inbounds nuw %struct.mime_state, ptr %11, i32 0, i32 1
  store ptr %10, ptr %12, align 8, !tbaa !60
  %13 = load ptr, ptr %4, align 8, !tbaa !57
  %14 = getelementptr inbounds nuw %struct.mime_state, ptr %13, i32 0, i32 2
  store i64 0, ptr %14, align 8, !tbaa !61
  ret void
}

; Function Attrs: nounwind uwtable
define internal void @cleanup_encoder_state(ptr noundef %0) #0 {
  %2 = alloca ptr, align 8
  store ptr %0, ptr %2, align 8, !tbaa !107
  %3 = load ptr, ptr %2, align 8, !tbaa !107
  %4 = getelementptr inbounds nuw %struct.mime_encoder_state, ptr %3, i32 0, i32 0
  store i64 0, ptr %4, align 8, !tbaa !109
  %5 = load ptr, ptr %2, align 8, !tbaa !107
  %6 = getelementptr inbounds nuw %struct.mime_encoder_state, ptr %5, i32 0, i32 1
  store i64 0, ptr %6, align 8, !tbaa !110
  %7 = load ptr, ptr %2, align 8, !tbaa !107
  %8 = getelementptr inbounds nuw %struct.mime_encoder_state, ptr %7, i32 0, i32 2
  store i64 0, ptr %8, align 8, !tbaa !111
  ret void
}

; Function Attrs: nounwind uwtable
define internal i32 @mime_part_rewind(ptr noundef %0) #0 {
  %2 = alloca ptr, align 8
  %3 = alloca i32, align 4
  %4 = alloca i32, align 4
  store ptr %0, ptr %2, align 8, !tbaa !4
  call void @llvm.lifetime.start.p0(i64 4, ptr %3) #8
  store i32 0, ptr %3, align 4, !tbaa !45
  call void @llvm.lifetime.start.p0(i64 4, ptr %4) #8
  store i32 0, ptr %4, align 4, !tbaa !45
  %5 = load ptr, ptr %2, align 8, !tbaa !4
  %6 = getelementptr inbounds nuw %struct.curl_mimepart, ptr %5, i32 0, i32 3
  %7 = load i32, ptr %6, align 4, !tbaa !20
  %8 = and i32 %7, 2
  %9 = icmp ne i32 %8, 0
  br i1 %9, label %10, label %11

10:                                               ; preds = %1
  store i32 4, ptr %4, align 4, !tbaa !45
  br label %11

11:                                               ; preds = %10, %1
  %12 = load ptr, ptr %2, align 8, !tbaa !4
  %13 = getelementptr inbounds nuw %struct.curl_mimepart, ptr %12, i32 0, i32 18
  call void @cleanup_encoder_state(ptr noundef %13)
  %14 = load ptr, ptr %2, align 8, !tbaa !4
  %15 = getelementptr inbounds nuw %struct.curl_mimepart, ptr %14, i32 0, i32 16
  %16 = getelementptr inbounds nuw %struct.mime_state, ptr %15, i32 0, i32 0
  %17 = load i32, ptr %16, align 8, !tbaa !35
  %18 = load i32, ptr %4, align 4, !tbaa !45
  %19 = icmp ugt i32 %17, %18
  br i1 %19, label %20, label %39

20:                                               ; preds = %11
  store i32 2, ptr %3, align 4, !tbaa !45
  %21 = load ptr, ptr %2, align 8, !tbaa !4
  %22 = getelementptr inbounds nuw %struct.curl_mimepart, ptr %21, i32 0, i32 6
  %23 = load ptr, ptr %22, align 8, !tbaa !29
  %24 = icmp ne ptr %23, null
  br i1 %24, label %25, label %38

25:                                               ; preds = %20
  %26 = load ptr, ptr %2, align 8, !tbaa !4
  %27 = getelementptr inbounds nuw %struct.curl_mimepart, ptr %26, i32 0, i32 6
  %28 = load ptr, ptr %27, align 8, !tbaa !29
  %29 = load ptr, ptr %2, align 8, !tbaa !4
  %30 = getelementptr inbounds nuw %struct.curl_mimepart, ptr %29, i32 0, i32 8
  %31 = load ptr, ptr %30, align 8, !tbaa !27
  %32 = call i32 %28(ptr noundef %31, i64 noundef 0, i32 noundef 0)
  store i32 %32, ptr %3, align 4, !tbaa !45
  %33 = load i32, ptr %3, align 4, !tbaa !45
  switch i32 %33, label %36 [
    i32 0, label %34
    i32 1, label %34
    i32 2, label %34
    i32 -1, label %35
  ]

34:                                               ; preds = %25, %25, %25
  br label %37

35:                                               ; preds = %25
  store i32 2, ptr %3, align 4, !tbaa !45
  br label %37

36:                                               ; preds = %25
  store i32 1, ptr %3, align 4, !tbaa !45
  br label %37

37:                                               ; preds = %36, %35, %34
  br label %38

38:                                               ; preds = %37, %20
  br label %39

39:                                               ; preds = %38, %11
  %40 = load i32, ptr %3, align 4, !tbaa !45
  %41 = icmp eq i32 %40, 0
  br i1 %41, label %42, label %46

42:                                               ; preds = %39
  %43 = load ptr, ptr %2, align 8, !tbaa !4
  %44 = getelementptr inbounds nuw %struct.curl_mimepart, ptr %43, i32 0, i32 16
  %45 = load i32, ptr %4, align 4, !tbaa !45
  call void @mimesetstate(ptr noundef %44, i32 noundef %45, ptr noundef null)
  br label %46

46:                                               ; preds = %42, %39
  %47 = load ptr, ptr %2, align 8, !tbaa !4
  %48 = getelementptr inbounds nuw %struct.curl_mimepart, ptr %47, i32 0, i32 19
  store i64 1, ptr %48, align 8, !tbaa !34
  %49 = load i32, ptr %3, align 4, !tbaa !45
  call void @llvm.lifetime.end.p0(i64 4, ptr %4) #8
  call void @llvm.lifetime.end.p0(i64 4, ptr %3) #8
  ret i32 %49
}

; Function Attrs: nounwind uwtable
define internal i32 @mime_rewind(ptr noundef %0) #0 {
  %2 = alloca ptr, align 8
  store ptr %0, ptr %2, align 8, !tbaa !4
  %3 = load ptr, ptr %2, align 8, !tbaa !4
  %4 = call i32 @mime_part_rewind(ptr noundef %3)
  %5 = icmp eq i32 %4, 0
  %6 = select i1 %5, i32 0, i32 65
  ret i32 %6
}

; Function Attrs: nounwind uwtable
define internal i32 @cr_mime_rewind(ptr noundef %0, ptr noundef %1) #0 {
  %3 = alloca ptr, align 8
  %4 = alloca ptr, align 8
  %5 = alloca ptr, align 8
  %6 = alloca i32, align 4
  store ptr %0, ptr %3, align 8, !tbaa !43
  store ptr %1, ptr %4, align 8, !tbaa !93
  call void @llvm.lifetime.start.p0(i64 8, ptr %5) #8
  %7 = load ptr, ptr %4, align 8, !tbaa !93
  %8 = getelementptr inbounds nuw %struct.Curl_creader, ptr %7, i32 0, i32 2
  %9 = load ptr, ptr %8, align 8, !tbaa !95
  store ptr %9, ptr %5, align 8, !tbaa !98
  call void @llvm.lifetime.start.p0(i64 4, ptr %6) #8
  %10 = load ptr, ptr %5, align 8, !tbaa !98
  %11 = getelementptr inbounds nuw %struct.cr_mime_ctx, ptr %10, i32 0, i32 1
  %12 = load ptr, ptr %11, align 8, !tbaa !100
  %13 = call i32 @mime_rewind(ptr noundef %12)
  store i32 %13, ptr %6, align 4, !tbaa !45
  %14 = load i32, ptr %6, align 4, !tbaa !45
  %15 = icmp ne i32 %14, 0
  br i1 %15, label %16, label %18

16:                                               ; preds = %2
  %17 = load ptr, ptr %3, align 8, !tbaa !43
  call void (ptr, ptr, ...) @Curl_failf(ptr noundef %17, ptr noundef @.str.64)
  br label %18

18:                                               ; preds = %16, %2
  %19 = load i32, ptr %6, align 4, !tbaa !45
  call void @llvm.lifetime.end.p0(i64 4, ptr %6) #8
  call void @llvm.lifetime.end.p0(i64 8, ptr %5) #8
  ret i32 %19
}