; Function Attrs: nounwind uwtable
define internal range(i32 0, 66) i32 @cr_mime_rewind(ptr noundef %0, ptr noundef readonly captures(none) %1) #0 {
  %3 = getelementptr inbounds nuw i8, ptr %1, i64 16
  %4 = load ptr, ptr %3, align 8, !tbaa !86
  %5 = getelementptr inbounds nuw i8, ptr %4, i64 32
  %6 = load ptr, ptr %5, align 8, !tbaa !89
  %7 = getelementptr inbounds nuw i8, ptr %6, i64 20
  %8 = load i32, ptr %7, align 4, !tbaa !24
  %9 = shl i32 %8, 1
  %spec.store.select.i.i = and i32 %9, 4
  %10 = getelementptr inbounds nuw i8, ptr %6, i64 152
  tail call void @llvm.memset.p0.i64(ptr noundef nonnull align 8 dereferenceable(24) %10, i8 0, i64 24, i1 false)
  %11 = getelementptr inbounds nuw i8, ptr %6, i64 120
  %12 = load i32, ptr %11, align 8, !tbaa !26
  %13 = icmp ugt i32 %12, %spec.store.select.i.i
  br i1 %13, label %14, label %mime_rewind.exit

14:                                               ; preds = %2
  %15 = getelementptr inbounds nuw i8, ptr %6, i64 40
  %16 = load ptr, ptr %15, align 8, !tbaa !40
  %.not.i.i = icmp eq ptr %16, null
  br i1 %.not.i.i, label %23, label %17

17:                                               ; preds = %14
  %18 = getelementptr inbounds nuw i8, ptr %6, i64 56
  %19 = load ptr, ptr %18, align 8, !tbaa !19
  %20 = tail call i32 %16(ptr noundef %19, i64 noundef 0, i32 noundef 0) #18
  %cond.i = icmp eq i32 %20, 0
  br i1 %cond.i, label %mime_rewind.exit, label %23

mime_rewind.exit:                                 ; preds = %2, %17
  store i32 %spec.store.select.i.i, ptr %11, align 8, !tbaa !41
  %21 = getelementptr inbounds nuw i8, ptr %6, i64 128
  tail call void @llvm.memset.p0.i64(ptr noundef nonnull align 8 dereferenceable(16) %21, i8 0, i64 16, i1 false)
  %22 = getelementptr inbounds nuw i8, ptr %6, i64 432
  store i64 1, ptr %22, align 8, !tbaa !25
  br label %25

23:                                               ; preds = %17, %14
  %24 = getelementptr inbounds nuw i8, ptr %6, i64 432
  store i64 1, ptr %24, align 8, !tbaa !25
  tail call void (ptr, ptr, ...) @Curl_failf(ptr noundef %0, ptr noundef nonnull @.str.64) #18
  br label %25

25:                                               ; preds = %mime_rewind.exit, %23
  %26 = phi i32 [ 65, %23 ], [ 0, %mime_rewind.exit ]
  ret i32 %26
}